target datalayout = "e-m:e-p270:32:32-p271:32:32-p272:64:64-i64:64-i128:128-f80:128-n8:16:32:64-S128"
target triple = "x86_64-unknown-linux-gnu"

%"class.QuantLib::Date" = type { i64 }

; Function Attrs: mustprogress uwtable
define noundef double @_ZNK8QuantLib27YoYCapFloorTermPriceSurface10floorPriceERKNS_6PeriodEd(ptr noundef nonnull align 8 dereferenceable(400) %this, ptr noundef nonnull align 4 dereferenceable(8) %d, double noundef %k) unnamed_addr #2 align 2 {
entry:
  %this.addr = alloca ptr, align 8
  %d.addr = alloca ptr, align 8
  %k.addr = alloca double, align 8
  %ref.tmp = alloca %"class.QuantLib::Date", align 8
  store ptr %this, ptr %this.addr, align 8, !tbaa !3
  store ptr %d, ptr %d.addr, align 8, !tbaa !3
  store double %k, ptr %k.addr, align 8, !tbaa !11
  %this1 = load ptr, ptr %this.addr, align 8
  call void @llvm.lifetime.start.p0(i64 8, ptr %ref.tmp) #17
  %0 = load ptr, ptr %d.addr, align 8, !tbaa !3
  %vtable = load ptr, ptr %this1, align 8, !tbaa !7
  %vfn = getelementptr inbounds ptr, ptr %vtable, i64 35
  %1 = load ptr, ptr %vfn, align 8
  %call = call i64 %1(ptr noundef nonnull align 8 dereferenceable(400) %this1, ptr noundef nonnull align 4 dereferenceable(8) %0)
  %coerce.dive = getelementptr inbounds nuw %"class.QuantLib::Date", ptr %ref.tmp, i32 0, i32 0
  store i64 %call, ptr %coerce.dive, align 8
  %2 = load double, ptr %k.addr, align 8, !tbaa !11
  %vtable2 = load ptr, ptr %this1, align 8, !tbaa !7
  %vfn3 = getelementptr inbounds ptr, ptr %vtable2, i64 19
  %3 = load ptr, ptr %vfn3, align 8
  %call4 = call noundef double %3(ptr noundef nonnull align 8 dereferenceable(400) %this1, ptr noundef nonnull align 8 dereferenceable(8) %ref.tmp, double noundef %2)
  call void @llvm.lifetime.end.p0(i64 8, ptr %ref.tmp) #17
  ret double %call4
}